MPLINK 4.33, Linker
Linker Map File - Created Fri Jan 04 00:05:33 1980

                                 Section Info
                  Section       Type    Address   Location Size(Bytes)
                ---------  ---------  ---------  ---------  ---------
                   .org_0       code   0x000000    program   0x000000
                   .org_1       code   0x000000    program   0x000002
                   .org_2       code   0x000005    program   0x0003c0



                              Program Memory Usage 
                               Start         End      
                           ---------   ---------      
                            0x000000    0x000000      
                            0x000005    0x0001e4      
            481 out of 1093 program addresses used, program memory utilization is 44%



                              Symbols - Sorted by Name
                     Name    Address   Location    Storage File                     
                ---------  ---------  ---------  --------- ---------                
             BORRA_Y_HOME   0x0000eb    program     static E:\Jorge\PROG_PIC_NUEVOS\CLAVE\lcd.h
                   CRONOS   0x00008e    program     static E:\Jorge\PROG_PIC_NUEVOS\CLAVE\teclado.h
                 CRONOS_1   0x000094    program     static E:\Jorge\PROG_PIC_NUEVOS\CLAVE\teclado.h
                 CRONOS_2   0x00009d    program     static E:\Jorge\PROG_PIC_NUEVOS\CLAVE\teclado.h
                 CRONOS_3   0x00009f    program     static E:\Jorge\PROG_PIC_NUEVOS\CLAVE\teclado.h
                  Control   0x000112    program     static E:\Jorge\PROG_PIC_NUEVOS\CLAVE\CLAVE.ASM
       DISPLAY_ON_CUR_OFF   0x0000ee    program     static E:\Jorge\PROG_PIC_NUEVOS\CLAVE\lcd.h
                    Delay   0x0000ff    program     static E:\Jorge\PROG_PIC_NUEVOS\CLAVE\CLAVE.ASM
               Delay_loop   0x000100    program     static E:\Jorge\PROG_PIC_NUEVOS\CLAVE\CLAVE.ASM
                  EE_Read   0x00013e    program     static E:\Jorge\PROG_PIC_NUEVOS\CLAVE\CLAVE.ASM
                 EE_Write   0x000142    program     static E:\Jorge\PROG_PIC_NUEVOS\CLAVE\CLAVE.ASM
                   Es_Can   0x000124    program     static E:\Jorge\PROG_PIC_NUEVOS\CLAVE\CLAVE.ASM
                    Fuera   0x00008d    program     static E:\Jorge\PROG_PIC_NUEVOS\CLAVE\teclado.h
                   Inicio   0x00014f    program     static E:\Jorge\PROG_PIC_NUEVOS\CLAVE\CLAVE.ASM
                  Key_Off   0x0000f1    program     static E:\Jorge\PROG_PIC_NUEVOS\CLAVE\CLAVE.ASM
               Key_Off_No   0x0000f7    program     static E:\Jorge\PROG_PIC_NUEVOS\CLAVE\CLAVE.ASM
                 LCD_BUSY   0x0000c2    program     static E:\Jorge\PROG_PIC_NUEVOS\CLAVE\lcd.h
                 LCD_DATO   0x0000d5    program     static E:\Jorge\PROG_PIC_NUEVOS\CLAVE\lcd.h
                    LCD_E   0x0000d1    program     static E:\Jorge\PROG_PIC_NUEVOS\CLAVE\lcd.h
                  LCD_INI   0x0000de    program     static E:\Jorge\PROG_PIC_NUEVOS\CLAVE\lcd.h
                  LCD_REG   0x0000da    program     static E:\Jorge\PROG_PIC_NUEVOS\CLAVE\lcd.h
                  Mensaje   0x000107    program     static E:\Jorge\PROG_PIC_NUEVOS\CLAVE\CLAVE.ASM
                Mensaje_1   0x000108    program     static E:\Jorge\PROG_PIC_NUEVOS\CLAVE\CLAVE.ASM
                  N_tecla   0x000116    program     static E:\Jorge\PROG_PIC_NUEVOS\CLAVE\CLAVE.ASM
                    No_Ok   0x0001dc    program     static E:\Jorge\PROG_PIC_NUEVOS\CLAVE\CLAVE.ASM
                 No_Tecla   0x00008b    program     static E:\Jorge\PROG_PIC_NUEVOS\CLAVE\teclado.h
                  No_es_A   0x000173    program     static E:\Jorge\PROG_PIC_NUEVOS\CLAVE\CLAVE.ASM
                No_es_Can   0x000126    program     static E:\Jorge\PROG_PIC_NUEVOS\CLAVE\CLAVE.ASM
             No_es_ultimo   0x00010f    program     static E:\Jorge\PROG_PIC_NUEVOS\CLAVE\CLAVE.ASM
                   No_hay   0x000169    program     static E:\Jorge\PROG_PIC_NUEVOS\CLAVE\CLAVE.ASM
                 No_usada   0x00015a    program     static E:\Jorge\PROG_PIC_NUEVOS\CLAVE\CLAVE.ASM
               No_usada_1   0x00015d    program     static E:\Jorge\PROG_PIC_NUEVOS\CLAVE\CLAVE.ASM
                     Okey   0x00012d    program     static E:\Jorge\PROG_PIC_NUEVOS\CLAVE\CLAVE.ASM
                   Okey_1   0x000133    program     static E:\Jorge\PROG_PIC_NUEVOS\CLAVE\CLAVE.ASM
              Otro_digito   0x0001b8    program     static E:\Jorge\PROG_PIC_NUEVOS\CLAVE\CLAVE.ASM
                 Otro_mas   0x0001c2    program     static E:\Jorge\PROG_PIC_NUEVOS\CLAVE\CLAVE.ASM
                Que_tecla   0x000078    program     static E:\Jorge\PROG_PIC_NUEVOS\CLAVE\teclado.h
                  Si_es_A   0x0001c0    program     static E:\Jorge\PROG_PIC_NUEVOS\CLAVE\CLAVE.ASM
                  Si_es_C   0x000177    program     static E:\Jorge\PROG_PIC_NUEVOS\CLAVE\CLAVE.ASM
                 Si_usada   0x000162    program     static E:\Jorge\PROG_PIC_NUEVOS\CLAVE\CLAVE.ASM
                  TECLADO   0x00006e    program     static E:\Jorge\PROG_PIC_NUEVOS\CLAVE\teclado.h
                    Tabla   0x0000a5    program     static E:\Jorge\PROG_PIC_NUEVOS\CLAVE\teclado.h
                     Test   0x000074    program     static E:\Jorge\PROG_PIC_NUEVOS\CLAVE\teclado.h
                   UP_LCD   0x0000b6    program     static E:\Jorge\PROG_PIC_NUEVOS\CLAVE\lcd.h
                     Wait   0x00014a    program     static E:\Jorge\PROG_PIC_NUEVOS\CLAVE\CLAVE.ASM
                    tabla   0x000005    program     static E:\Jorge\PROG_PIC_NUEVOS\CLAVE\CLAVE.ASM



                              Symbols - Sorted by Address
                     Name    Address   Location    Storage File                     
                ---------  ---------  ---------  --------- ---------                
                    tabla   0x000005    program     static E:\Jorge\PROG_PIC_NUEVOS\CLAVE\CLAVE.ASM
                  TECLADO   0x00006e    program     static E:\Jorge\PROG_PIC_NUEVOS\CLAVE\teclado.h
                     Test   0x000074    program     static E:\Jorge\PROG_PIC_NUEVOS\CLAVE\teclado.h
                Que_tecla   0x000078    program     static E:\Jorge\PROG_PIC_NUEVOS\CLAVE\teclado.h
                 No_Tecla   0x00008b    program     static E:\Jorge\PROG_PIC_NUEVOS\CLAVE\teclado.h
                    Fuera   0x00008d    program     static E:\Jorge\PROG_PIC_NUEVOS\CLAVE\teclado.h
                   CRONOS   0x00008e    program     static E:\Jorge\PROG_PIC_NUEVOS\CLAVE\teclado.h
                 CRONOS_1   0x000094    program     static E:\Jorge\PROG_PIC_NUEVOS\CLAVE\teclado.h
                 CRONOS_2   0x00009d    program     static E:\Jorge\PROG_PIC_NUEVOS\CLAVE\teclado.h
                 CRONOS_3   0x00009f    program     static E:\Jorge\PROG_PIC_NUEVOS\CLAVE\teclado.h
                    Tabla   0x0000a5    program     static E:\Jorge\PROG_PIC_NUEVOS\CLAVE\teclado.h
                   UP_LCD   0x0000b6    program     static E:\Jorge\PROG_PIC_NUEVOS\CLAVE\lcd.h
                 LCD_BUSY   0x0000c2    program     static E:\Jorge\PROG_PIC_NUEVOS\CLAVE\lcd.h
                    LCD_E   0x0000d1    program     static E:\Jorge\PROG_PIC_NUEVOS\CLAVE\lcd.h
                 LCD_DATO   0x0000d5    program     static E:\Jorge\PROG_PIC_NUEVOS\CLAVE\lcd.h
                  LCD_REG   0x0000da    program     static E:\Jorge\PROG_PIC_NUEVOS\CLAVE\lcd.h
                  LCD_INI   0x0000de    program     static E:\Jorge\PROG_PIC_NUEVOS\CLAVE\lcd.h
             BORRA_Y_HOME   0x0000eb    program     static E:\Jorge\PROG_PIC_NUEVOS\CLAVE\lcd.h
       DISPLAY_ON_CUR_OFF   0x0000ee    program     static E:\Jorge\PROG_PIC_NUEVOS\CLAVE\lcd.h
                  Key_Off   0x0000f1    program     static E:\Jorge\PROG_PIC_NUEVOS\CLAVE\CLAVE.ASM
               Key_Off_No   0x0000f7    program     static E:\Jorge\PROG_PIC_NUEVOS\CLAVE\CLAVE.ASM
                    Delay   0x0000ff    program     static E:\Jorge\PROG_PIC_NUEVOS\CLAVE\CLAVE.ASM
               Delay_loop   0x000100    program     static E:\Jorge\PROG_PIC_NUEVOS\CLAVE\CLAVE.ASM
                  Mensaje   0x000107    program     static E:\Jorge\PROG_PIC_NUEVOS\CLAVE\CLAVE.ASM
                Mensaje_1   0x000108    program     static E:\Jorge\PROG_PIC_NUEVOS\CLAVE\CLAVE.ASM
             No_es_ultimo   0x00010f    program     static E:\Jorge\PROG_PIC_NUEVOS\CLAVE\CLAVE.ASM
                  Control   0x000112    program     static E:\Jorge\PROG_PIC_NUEVOS\CLAVE\CLAVE.ASM
                  N_tecla   0x000116    program     static E:\Jorge\PROG_PIC_NUEVOS\CLAVE\CLAVE.ASM
                   Es_Can   0x000124    program     static E:\Jorge\PROG_PIC_NUEVOS\CLAVE\CLAVE.ASM
                No_es_Can   0x000126    program     static E:\Jorge\PROG_PIC_NUEVOS\CLAVE\CLAVE.ASM
                     Okey   0x00012d    program     static E:\Jorge\PROG_PIC_NUEVOS\CLAVE\CLAVE.ASM
                   Okey_1   0x000133    program     static E:\Jorge\PROG_PIC_NUEVOS\CLAVE\CLAVE.ASM
                  EE_Read   0x00013e    program     static E:\Jorge\PROG_PIC_NUEVOS\CLAVE\CLAVE.ASM
                 EE_Write   0x000142    program     static E:\Jorge\PROG_PIC_NUEVOS\CLAVE\CLAVE.ASM
                     Wait   0x00014a    program     static E:\Jorge\PROG_PIC_NUEVOS\CLAVE\CLAVE.ASM
                   Inicio   0x00014f    program     static E:\Jorge\PROG_PIC_NUEVOS\CLAVE\CLAVE.ASM
                 No_usada   0x00015a    program     static E:\Jorge\PROG_PIC_NUEVOS\CLAVE\CLAVE.ASM
               No_usada_1   0x00015d    program     static E:\Jorge\PROG_PIC_NUEVOS\CLAVE\CLAVE.ASM
                 Si_usada   0x000162    program     static E:\Jorge\PROG_PIC_NUEVOS\CLAVE\CLAVE.ASM
                   No_hay   0x000169    program     static E:\Jorge\PROG_PIC_NUEVOS\CLAVE\CLAVE.ASM
                  No_es_A   0x000173    program     static E:\Jorge\PROG_PIC_NUEVOS\CLAVE\CLAVE.ASM
                  Si_es_C   0x000177    program     static E:\Jorge\PROG_PIC_NUEVOS\CLAVE\CLAVE.ASM
              Otro_digito   0x0001b8    program     static E:\Jorge\PROG_PIC_NUEVOS\CLAVE\CLAVE.ASM
                  Si_es_A   0x0001c0    program     static E:\Jorge\PROG_PIC_NUEVOS\CLAVE\CLAVE.ASM
                 Otro_mas   0x0001c2    program     static E:\Jorge\PROG_PIC_NUEVOS\CLAVE\CLAVE.ASM
                    No_Ok   0x0001dc    program     static E:\Jorge\PROG_PIC_NUEVOS\CLAVE\CLAVE.ASM


