MPASM  5.33            MULTIPLEXANDO_COPY.ASM   11-2-2009  18:52:08         PAGE  1


LOC  OBJECT CODE     LINE SOURCE TEXT
  VALUE

                      00001 ;---------------------ENCABEZADO--------------
                      00002 
                      00003         LIST            P=16F84A
                      00004         INCLUDE         "P16F84A.INC"
                      00001         LIST
                      00002 ; P16F84A.INC  Standard Header File, Version 2.00    Microchip Technology, Inc.
                      00134         LIST
                      00005 
                      00006 ;------------VARIABLES A UTILIZAR-----------
                      00007 
                      00008         CBLOCK          0X0D
                      00009                 
  0000000D            00010                 RET1
  0000000E            00011                 RET2                    ;REGIDTROS PARA RETARDOS
  0000000F            00012                 ROTA                    ;REGISTRO PARA ROTACION(CAMBIO DE DISPLAY)
  00000010            00013                 DISP1                   ;PRIMER DATO A MOSTRAR
  00000011            00014                 DISP2                   ;SEGUNDO DATO A MOSTRAR
  00000012            00015                 DISP3                   ;TERCER DATO A MOSTRAR
  00000013            00016                 DISP4                   ;CUARTO DATO A MOSTRAR
  00000014            00017                 DISP5                   ;UN DATO MAS EN LA TABLA
  00000015            00018                 DISP6                   ;UN DATO MAS EN LA TABLA
  00000016            00019                 DISP7                   ;UN DATO MAS EN LA TABLA
  00000017            00020                 DISP8                   ;UN DATO MAS EN LA TABLA
  00000018            00021                 DISP9                   ;UN DATO MAS EN LA TABLA
  00000019            00022                 DISP10                  ;UN DATO MAS EN LA TABLA
  0000001A            00023                 DISP11                  ;UN DATO MAS EN LA TABLA
  0000001B            00024                 DISP12                  ;UN DATO MAS EN LA TABLA
  0000001C            00025                 TIEMPO_1
  0000001D            00026                 TIEMPO_2
  0000001E            00027                 DESPLAZA                ;PARA DESPLAZAR LOS DIGITOS
                      00028                 
                      00029 
                      00030         ENDC
                      00031 
                      00032 ;---------CONFIGURACION DE PUERTOS---------
                      00033 
0000                  00034 RESET   ORG             0X00
0000   2805           00035                 GOTO    INICIO
0005                  00036                 ORG             0X05
                      00037 
0005   1683           00038 INICIO  BSF             STATUS,RP0              ;CONFIGURANDO PUERTOS
Message[302]: Register in operand not in bank 0.  Ensure that bank bits are correct.
0006   0185           00039                 CLRF    TRISA                   ;PORTA ES SALIDA
Message[302]: Register in operand not in bank 0.  Ensure that bank bits are correct.
0007   0186           00040                 CLRF    TRISB                   ;PORTB ES SALIDA
0008   1283           00041                 BCF             STATUS,RP0
                      00042 
                      00043 ;--------CARGA DE REGISTROS A MOSTRAR-------
                      00044 
0009   3001           00045                 MOVLW   0X01
000A   0090           00046                 MOVWF   DISP1
000B   3002           00047                 MOVLW   0X02
000C   0091           00048                 MOVWF   DISP2
MPASM  5.33            MULTIPLEXANDO_COPY.ASM   11-2-2009  18:52:08         PAGE  2


LOC  OBJECT CODE     LINE SOURCE TEXT
  VALUE

000D   3003           00049                 MOVLW   0X03
000E   0092           00050                 MOVWF   DISP3
000F   3004           00051                 MOVLW   0X04
0010   0093           00052                 MOVWF   DISP4
0011   3005           00053                 MOVLW   0X05                    ;CARGO PARA VISUALIZAR UN DATO MAS
0012   0094           00054                 MOVWF   DISP5                   ;EL QUINTO DATO
0013   3006           00055                 MOVLW   0X06
0014   0095           00056                 MOVWF   DISP6
0015   3007           00057                 MOVLW   0X07
0016   0096           00058                 MOVWF   DISP7
0017   3008           00059                 MOVLW   0X08
0018   0097           00060                 MOVWF   DISP8
0019   3009           00061                 MOVLW   0X09
001A   0098           00062                 MOVWF   DISP9
001B   300A           00063                 MOVLW   0X0A
001C   0099           00064                 MOVWF   DISP10
001D   300B           00065                 MOVLW   0X0B
001E   009A           00066                 MOVWF   DISP11
001F   300C           00067                 MOVLW   0X0C
0020   009B           00068                 MOVWF   DISP12
                      00069 
0021   019E           00070                 CLRF    DESPLAZA                ;INICIALIZA PARA VER DISP1
0022   141E           00071                 BSF             DESPLAZA,0              ;DESPLAZA='00000001'
                      00072                 
0023   30B4           00073                 MOVLW   .180
0024   009C           00074                 MOVWF   TIEMPO_1
                      00075         
                      00076 
                      00077 ;--------------APAGA TRANSISTORES------------
                      00078                 
0025   0185           00079                 CLRF    PORTA
                      00080 
                      00081 ;-------------PROGRAMA PRINCIPAL-------------
                      00082 
0026   3008           00083 INI             MOVLW   0X08
0027   008F           00084                 MOVWF   ROTA            ;ROTA=00001000
                      00085 
0028   2055           00086                 CALL    DISP??          ;PARA DESPLAZAR DIGITOS
0029   0084           00087                 MOVWF   FSR                     ;CARGA FSR CON LA DIRECCION DE DISPX    
                      00088 
002A   3000           00089 DISPLAY MOVLW   0X00            ;APAGO TODOS LOS DISPLAY
002B   0086           00090                 MOVWF   PORTB           ;PORTB=00000000
                      00091 
002C   080F           00092                 MOVF    ROTA,W          ;SELECCIONAMOS EL TRANSISTOR DEL DISPLAY DE  LA IZQUIERDA
002D   0085           00093                 MOVWF   PORTA           ;PORTA=00001000 
                      00094 
002E   0800           00095                 MOVF    INDF,W          ;LEE DATO AL QUE APUNTA FSR OSEA DISP1
002F   2047           00096                 CALL    TABLA           ;LLAMA A TABLA
0030   0086           00097                 MOVWF   PORTB           ;PASA EL DATO OBTENIDO A PORTB
                      00098 
0031   2038           00099                 CALL    RETARDO         ;LLA,A AL MINIRETARDO
0032   180F           00100                 BTFSC   ROTA,0          ;ROTA="00000001"...???  
0033   2826           00101                 GOTO    INI                     ;SI ES SI SE VIO TODO, REINICIA 
MPASM  5.33            MULTIPLEXANDO_COPY.ASM   11-2-2009  18:52:08         PAGE  3


LOC  OBJECT CODE     LINE SOURCE TEXT
  VALUE

                      00102                 
0034   1003           00103                 BCF             STATUS,C        ;CARRY=0, PARA NO AFECTAR ROTACIONES
0035   0C8F           00104                 RRF             ROTA,F          ;ROTA DISPLAY
0036   0A84           00105                 INCF    FSR,F           ;APUNTA AL SIGUIENTE DISP_X
0037   282A           00106                 GOTO    DISPLAY
                      00107 
                      00108 ;----------------------RETARDO-------------------
                      00109 
0038   3003           00110 RETARDO MOVLW   0X03
0039   008D           00111                 MOVWF   RET1
003A   306E           00112 DOS             MOVLW   0X6E
003B   008E           00113                 MOVWF   RET2
003C   0000           00114 UNO             NOP
003D   0000           00115                 NOP
003E   0000           00116                 NOP
003F   0000           00117                 NOP
0040   0000           00118                 NOP
0041   0000           00119                 NOP
0042   0B8E           00120                 DECFSZ  RET2,F
0043   283C           00121                 GOTO    UNO
0044   0B8D           00122                 DECFSZ  RET1,F
0045   283A           00123                 GOTO    DOS
0046   3400           00124                 RETLW   0X00
                      00125 
                      00126 ;------------------------TABLA-------------------
                      00127 
0047   0782           00128 TABLA   ADDWF   PCL,F           ;SE INCREMENTA EL CONTADORE DE PROGRAMA
                      00129                 ;display . gfedcba segmentos de los leds del display
0048   0000           00130                 NOP
                      00131 
0049   3480           00132                 RETLW   B'10000000'     ;PARA  EL QUINTO DATO(.)
004A   3480           00133                 RETLW   B'10000000'     ;PARA  EL SEXTO DATO(.)
004B   3480           00134                 RETLW   B'10000000'     ;PARA  EL SEPTIMO DATO(.)
004C   3480           00135                 RETLW   B'10000000'     ;PARA  EL OCTAVO DATO(.)
                      00136 
004D   3406           00137                 RETLW   B'00000110' ; código para la l 
004E   345C           00138                 RETLW   B'01011100' ; código para la o 
004F   347C           00139                 RETLW   B'01111100' ; código para la b 
0050   345C           00140                 RETLW   B'01011100' ; código para la o.
                      00141                 
0051   3480           00142                 RETLW   B'10000000'     ;PARA  EL QUINTO DATO(.)
0052   3480           00143                 RETLW   B'10000000'     ;PARA  EL SEXTO DATO(.)
0053   3480           00144                 RETLW   B'10000000'     ;PARA  EL SEPTIMO DATO(.)
0054   3480           00145                 RETLW   B'10000000'     ;PARA  EL OCTAVO DATO(.)
                      00146 
                      00147 ;OBSERVACION:
                      00148 ;PARA QUE LAS LETRAS SE DESPLACEN       SELECCIONAMOS A PARTIR DE QUE
                      00149 ;DISPLAY SE LEE PARA CARGARLO AL FSR CON EL CODIGO
                      00150                 ;MOVLW  DISP1
                      00151                 ;MOVWF  FSR                     ;CARGA FSR CON LA DIRECCION DE DISP1 
                      00152 
                      00153 ;------------------DESPLAZANDO DIGITOS--------------
                      00154                 ;AQUI PONGO EL PROGRAMA PARA CAMBIAR DE DISP (DIGITO) OSEA
MPASM  5.33            MULTIPLEXANDO_COPY.ASM   11-2-2009  18:52:08         PAGE  4


LOC  OBJECT CODE     LINE SOURCE TEXT
  VALUE

                      00155                 ;LA SECUENCIA PARA DESPLAZAR DIGITOS
                      00156 
0055                  00157 DISP??  
                      00158 
0055   0F9C           00159 CONT_1  INCFSZ  TIEMPO_1,F              
0056   285B           00160                 GOTO    SEGUIR
0057   30B4           00161                 MOVLW   .180
0058   009C           00162                 MOVWF   TIEMPO_1
0059   1003           00163                 BCF             STATUS,C
005A   0D9E           00164                 RLF             DESPLAZA,F                      ;PARA DESPLAZAR DIGITOS
                      00165 
005B   181E           00166 SEGUIR  BTFSC   DESPLAZA,0
005C   3410           00167                 RETLW   DISP1   
005D   189E           00168                 BTFSC   DESPLAZA,1
005E   3411           00169                 RETLW   DISP2
005F   191E           00170                 BTFSC   DESPLAZA,2
0060   3412           00171                 RETLW   DISP3
0061   199E           00172                 BTFSC   DESPLAZA,3
0062   3413           00173                 RETLW   DISP4   
0063   1A1E           00174                 BTFSC   DESPLAZA,4
0064   3414           00175                 RETLW   DISP5
                      00176 
0065   1A9E           00177                 BTFSC   DESPLAZA,5
0066   3415           00178                 RETLW   DISP6
0067   1B1E           00179                 BTFSC   DESPLAZA,6
0068   3416           00180                 RETLW   DISP7
0069   1B9E           00181                 BTFSC   DESPLAZA,7
006A   3417           00182                 RETLW   DISP8   
                      00183         
006B   019E           00184                 CLRF    DESPLAZA                ;REPITE TODO DE NUEVO
006C   141E           00185                 BSF             DESPLAZA,0
006D   2855           00186                 GOTO    DISP??
                      00187 
                      00188 ;-------------------------------------------------
                      00189         END
MPASM  5.33            MULTIPLEXANDO_COPY.ASM   11-2-2009  18:52:08         PAGE  5


SYMBOL TABLE
  LABEL                             VALUE 

C                                 00000000
CONT_1                            00000055
DC                                00000001
DESPLAZA                          0000001E
DISP1                             00000010
DISP10                            00000019
DISP11                            0000001A
DISP12                            0000001B
DISP2                             00000011
DISP3                             00000012
DISP4                             00000013
DISP5                             00000014
DISP6                             00000015
DISP7                             00000016
DISP8                             00000017
DISP9                             00000018
DISP??                            00000055
DISPLAY                           0000002A
DOS                               0000003A
EEADR                             00000009
EECON1                            00000088
EECON2                            00000089
EEDATA                            00000008
EEIE                              00000006
EEIF                              00000004
F                                 00000001
FSR                               00000004
GIE                               00000007
INDF                              00000000
INI                               00000026
INICIO                            00000005
INTCON                            0000000B
INTE                              00000004
INTEDG                            00000006
INTF                              00000001
IRP                               00000007
NOT_PD                            00000003
NOT_RBPU                          00000007
NOT_TO                            00000004
OPTION_REG                        00000081
PCL                               00000002
PCLATH                            0000000A
PORTA                             00000005
PORTB                             00000006
PS0                               00000000
PS1                               00000001
PS2                               00000002
PSA                               00000003
RBIE                              00000003
RBIF                              00000000
RD                                00000000
RESET                             00000000
RET1                              0000000D
MPASM  5.33            MULTIPLEXANDO_COPY.ASM   11-2-2009  18:52:08         PAGE  6


SYMBOL TABLE
  LABEL                             VALUE 

RET2                              0000000E
RETARDO                           00000038
ROTA                              0000000F
RP0                               00000005
RP1                               00000006
SEGUIR                            0000005B
STATUS                            00000003
T0CS                              00000005
T0IE                              00000005
T0IF                              00000002
T0SE                              00000004
TABLA                             00000047
TIEMPO_1                          0000001C
TIEMPO_2                          0000001D
TMR0                              00000001
TRISA                             00000085
TRISB                             00000086
UNO                               0000003C
W                                 00000000
WR                                00000001
WREN                              00000002
WRERR                             00000003
Z                                 00000002
_CP_OFF                           00003FFF
_CP_ON                            0000000F
_HS_OSC                           00003FFE
_LP_OSC                           00003FFC
_PWRTE_OFF                        00003FFF
_PWRTE_ON                         00003FF7
_RC_OSC                           00003FFF
_WDT_OFF                          00003FFB
_WDT_ON                           00003FFF
_XT_OSC                           00003FFD
__16F84A                          00000001
__DEBUG                           1


MEMORY USAGE MAP ('X' = Used,  '-' = Unused)

0000 : X----XXXXXXXXXXX XXXXXXXXXXXXXXXX XXXXXXXXXXXXXXXX XXXXXXXXXXXXXXXX
0040 : XXXXXXXXXXXXXXXX XXXXXXXXXXXXXXXX XXXXXXXXXXXXXX-- ----------------

All other memory blocks unused.

Program Memory Words Used:   106
Program Memory Words Free:   918


MPASM  5.33            MULTIPLEXANDO_COPY.ASM   11-2-2009  18:52:08         PAGE  7





Errors   :     0
Warnings :     0 reported,     0 suppressed
Messages :     2 reported,     0 suppressed

